Certificate:
    Data:
        Version: 3 (0x2)
        Serial Number:
            3c:08:a1:7d:9e:36:9f:f9:3d:9f:9d:51:fc:c8:5b:85:c6:e9:26:76
        Signature Algorithm: ecdsa-with-SHA256
        Issuer: C = FR, L = Limoges, O = CRYPTIS, OU = ProjetSecuTIC, CN = ACProjetSecuTIC
        Validity
            Not Before: Apr 19 09:42:16 2024 GMT
            Not After : May 19 09:42:16 2024 GMT
        Subject: C = FR, L = Limoges, O = CRYPTIS, OU = ProjetSecuTIC, CN = ACProjetSecuTIC
        Subject Public Key Info:
            Public Key Algorithm: id-ecPublicKey
                Public-Key: (256 bit)
                pub:
                    04:ff:8b:bf:fa:fc:11:1c:90:f7:c3:e9:09:fa:a4:
                    74:23:19:55:77:b9:e9:bf:b9:4d:a0:4b:68:61:f9:
                    17:08:bb:26:de:68:c4:88:12:a2:e3:ab:91:66:83:
                    ad:2d:5e:7e:df:06:8b:69:04:d5:e0:95:76:50:a8:
                    ec:2c:a6:ac:1f
                ASN1 OID: prime256v1
                NIST CURVE: P-256
        X509v3 extensions:
            X509v3 Basic Constraints: 
                CA:TRUE
            X509v3 Subject Key Identifier: 
                51:F8:3C:05:67:DB:39:F3:4D:56:2F:12:D2:65:E4:F9:C4:B2:B3:76
    Signature Algorithm: ecdsa-with-SHA256
    Signature Value:
        30:45:02:20:4d:a5:c2:eb:f0:52:d6:f2:2d:6f:39:3b:14:72:
        0b:4a:5d:90:f7:72:11:f7:ac:17:0f:48:e0:18:4c:3a:82:9d:
        02:21:00:dd:ff:e4:83:8e:8e:c5:f3:7e:9b:ef:23:bc:a1:6e:
        7c:f8:1c:06:a2:36:58:4e:91:87:ce:66:42:15:e8:5c:74
-----BEGIN CERTIFICATE-----
MIIB9zCCAZ2gAwIBAgIUPAihfZ42n/k9n51R/MhbhcbpJnYwCgYIKoZIzj0EAwIw
YzELMAkGA1UEBhMCRlIxEDAOBgNVBAcMB0xpbW9nZXMxEDAOBgNVBAoMB0NSWVBU
SVMxFjAUBgNVBAsMDVByb2pldFNlY3VUSUMxGDAWBgNVBAMMD0FDUHJvamV0U2Vj
dVRJQzAeFw0yNDA0MTkwOTQyMTZaFw0yNDA1MTkwOTQyMTZaMGMxCzAJBgNVBAYT
AkZSMRAwDgYDVQQHDAdMaW1vZ2VzMRAwDgYDVQQKDAdDUllQVElTMRYwFAYDVQQL
DA1Qcm9qZXRTZWN1VElDMRgwFgYDVQQDDA9BQ1Byb2pldFNlY3VUSUMwWTATBgcq
hkjOPQIBBggqhkjOPQMBBwNCAAT/i7/6/BEckPfD6Qn6pHQjGVV3uem/uU2gS2hh
+RcIuybeaMSIEqLjq5Fmg60tXn7fBotpBNXglXZQqOwspqwfoy8wLTAMBgNVHRME
BTADAQH/MB0GA1UdDgQWBBRR+DwFZ9s5801WLxLSZeT5xLKzdjAKBggqhkjOPQQD
AgNIADBFAiBNpcLr8FLW8i1vOTsUcgtKXZD3chH3rBcPSOAYTDqCnQIhAN3/5IOO
jsXzfpvvI7yhbnz4HAaiNlhOkYfOZkIV6Fx0
-----END CERTIFICATE-----
