Certificate Request:
    Data:
        Version: 1 (0x0)
        Subject: C = FR, L = Limoges, O = CRYPTIS, OU = SecuTIC, CN = localhost
        Subject Public Key Info:
            Public Key Algorithm: id-ecPublicKey
                Public-Key: (256 bit)
                pub:
                    04:f9:91:1e:3b:a2:42:b9:62:c6:24:c4:54:03:2d:
                    9b:0e:bf:9f:28:7c:f3:e3:7e:c1:9a:43:78:da:31:
                    db:fa:27:2c:c0:3b:14:6d:e3:ea:a8:d3:36:96:f3:
                    78:8c:37:76:a3:72:da:7e:b8:3c:df:fc:e4:a4:28:
                    ce:71:2a:80:fd
                ASN1 OID: prime256v1
                NIST CURVE: P-256
        Attributes:
            Requested Extensions:
                X509v3 Basic Constraints: 
                    CA:FALSE
    Signature Algorithm: ecdsa-with-SHA256
    Signature Value:
        30:45:02:21:00:b9:63:56:be:78:51:82:53:1f:4c:0a:98:a6:
        02:75:96:90:4f:03:f2:ba:0e:d8:e1:f6:16:03:2b:91:5c:9b:
        84:02:20:20:74:e7:c3:b2:53:68:55:05:e2:09:63:ab:61:85:
        68:db:4f:3c:56:07:5e:99:8c:ed:71:f9:33:4c:e4:9e:3b
-----BEGIN CERTIFICATE REQUEST-----
MIIBLjCB1QIBADBXMQswCQYDVQQGEwJGUjEQMA4GA1UEBwwHTGltb2dlczEQMA4G
A1UECgwHQ1JZUFRJUzEQMA4GA1UECwwHU2VjdVRJQzESMBAGA1UEAwwJbG9jYWxo
b3N0MFkwEwYHKoZIzj0CAQYIKoZIzj0DAQcDQgAE+ZEeO6JCuWLGJMRUAy2bDr+f
KHzz437BmkN42jHb+icswDsUbePqqNM2lvN4jDd2o3Lafrg83/zkpCjOcSqA/aAc
MBoGCSqGSIb3DQEJDjENMAswCQYDVR0TBAIwADAKBggqhkjOPQQDAgNIADBFAiEA
uWNWvnhRglMfTAqYpgJ1lpBPA/K6Dtjh9hYDK5Fcm4QCICB058OyU2hVBeIJY6th
hWjbTzxWB16ZjO1x+TNM5J47
-----END CERTIFICATE REQUEST-----
