Certificate:
    Data:
        Version: 3 (0x2)
        Serial Number:
            53:0c:e4:24:aa:f5:0d:fa:f0:fd:ac:02:ff:88:c4:c9:83:26:73:2a
        Signature Algorithm: ecdsa-with-SHA256
        Issuer: C = FR, L = Limoges, O = CRYPTIS, OU = ProjetSecuTIC, CN = ACProjetSecuTIC
        Validity
            Not Before: Apr 30 17:41:43 2024 GMT
            Not After : Apr 28 17:41:43 2034 GMT
        Subject: C = FR, L = Limoges, O = CRYPTIS, OU = SecuTIC, CN = localhost
        Subject Public Key Info:
            Public Key Algorithm: id-ecPublicKey
                Public-Key: (256 bit)
                pub:
                    04:f9:91:1e:3b:a2:42:b9:62:c6:24:c4:54:03:2d:
                    9b:0e:bf:9f:28:7c:f3:e3:7e:c1:9a:43:78:da:31:
                    db:fa:27:2c:c0:3b:14:6d:e3:ea:a8:d3:36:96:f3:
                    78:8c:37:76:a3:72:da:7e:b8:3c:df:fc:e4:a4:28:
                    ce:71:2a:80:fd
                ASN1 OID: prime256v1
                NIST CURVE: P-256
        X509v3 extensions:
            X509v3 Basic Constraints: critical
                CA:FALSE
            X509v3 Subject Key Identifier: 
                7A:D4:DB:39:86:37:DF:21:B1:2E:1E:FA:D0:E7:45:D9:1D:D3:24:A6
            X509v3 Authority Key Identifier: 
                51:F8:3C:05:67:DB:39:F3:4D:56:2F:12:D2:65:E4:F9:C4:B2:B3:76
    Signature Algorithm: ecdsa-with-SHA256
    Signature Value:
        30:46:02:21:00:d0:04:da:02:55:58:2e:11:ca:88:04:1d:f3:
        67:90:26:79:aa:06:00:1e:7a:c8:55:b5:31:93:c1:b7:09:4d:
        5f:02:21:00:f1:af:57:91:25:c3:9d:78:0f:a8:cf:43:51:3d:
        32:4a:6d:04:aa:cd:e7:ec:a1:18:20:3d:31:cf:09:d7:b6:81
-----BEGIN CERTIFICATE-----
MIICDTCCAbKgAwIBAgIUUwzkJKr1Dfrw/awC/4jEyYMmcyowCgYIKoZIzj0EAwIw
YzELMAkGA1UEBhMCRlIxEDAOBgNVBAcMB0xpbW9nZXMxEDAOBgNVBAoMB0NSWVBU
SVMxFjAUBgNVBAsMDVByb2pldFNlY3VUSUMxGDAWBgNVBAMMD0FDUHJvamV0U2Vj
dVRJQzAeFw0yNDA0MzAxNzQxNDNaFw0zNDA0MjgxNzQxNDNaMFcxCzAJBgNVBAYT
AkZSMRAwDgYDVQQHDAdMaW1vZ2VzMRAwDgYDVQQKDAdDUllQVElTMRAwDgYDVQQL
DAdTZWN1VElDMRIwEAYDVQQDDAlsb2NhbGhvc3QwWTATBgcqhkjOPQIBBggqhkjO
PQMBBwNCAAT5kR47okK5YsYkxFQDLZsOv58ofPPjfsGaQ3jaMdv6JyzAOxRt4+qo
0zaW83iMN3ajctp+uDzf/OSkKM5xKoD9o1AwTjAMBgNVHRMBAf8EAjAAMB0GA1Ud
DgQWBBR61Ns5hjffIbEuHvrQ50XZHdMkpjAfBgNVHSMEGDAWgBRR+DwFZ9s5801W
LxLSZeT5xLKzdjAKBggqhkjOPQQDAgNJADBGAiEA0ATaAlVYLhHKiAQd82eQJnmq
BgAeeshVtTGTwbcJTV8CIQDxr1eRJcOdeA+oz0NRPTJKbQSqzefsoRggPTHPCde2
gQ==
-----END CERTIFICATE-----
